target datalayout = "e-m:e-p270:32:32-p271:32:32-p272:64:64-i64:64-i128:128-f80:128-n8:16:32:64-S128"
target triple = "x86_64-pc-linux-gnu"

%"class.std::__1::basic_string" = type { %"union.std::__1::basic_string<char>::__rep" }
%"union.std::__1::basic_string<char>::__rep" = type { %"struct.std::__1::basic_string<char>::__long" }
%"struct.std::__1::basic_string<char>::__long" = type { %struct.anon.0, i64, ptr }
%struct.anon.0 = type { i64 }
%"class.std::__1::locale::facet" = type { %"class.std::__1::__shared_count" }
%"class.std::__1::__shared_count" = type { ptr, i64 }
%"class.std::__1::locale::__imp" = type { %"class.std::__1::locale::facet", %"class.std::__1::vector", %"class.std::__1::basic_string" }
%"class.std::__1::vector" = type { ptr, ptr, ptr, %"class.std::__1::__sso_allocator.base", %"class.std::__1::__compressed_pair_padding" }
%"class.std::__1::__sso_allocator.base" = type { [240 x i8], i8 }
%"class.std::__1::__compressed_pair_padding" = type { [7 x i8] }

; Function Attrs: mustprogress nounwind uwtable
define linkonce_odr hidden noundef i64 @_ZNKSt3__16vectorIPNS_6locale5facetENS_15__sso_allocatorIS3_Lm30EEEE4sizeB8ne210000Ev(ptr noundef nonnull align 8 dereferenceable(272) %0) #0 comdat align 2 {
  %2 = alloca ptr, align 8
  store ptr %0, ptr %2, align 8, !tbaa !365
  %3 = load ptr, ptr %2, align 8
  %4 = getelementptr inbounds nuw %"class.std::__1::vector", ptr %3, i32 0, i32 1
  %5 = load ptr, ptr %4, align 8, !tbaa !372
  %6 = getelementptr inbounds nuw %"class.std::__1::vector", ptr %3, i32 0, i32 0
  %7 = load ptr, ptr %6, align 8, !tbaa !367
  %8 = ptrtoint ptr %5 to i64
  %9 = ptrtoint ptr %7 to i64
  %10 = sub i64 %8, %9
  %11 = sdiv exact i64 %10, 8
  ret i64 %11
}

; Function Attrs: mustprogress nounwind uwtable
define linkonce_odr hidden noundef nonnull align 8 dereferenceable(8) ptr @_ZNKSt3__16vectorIPNS_6locale5facetENS_15__sso_allocatorIS3_Lm30EEEEixB8ne210000Em(ptr noundef nonnull align 8 dereferenceable(272) %0, i64 noundef %1) #0 comdat align 2 {
  %3 = alloca ptr, align 8
  %4 = alloca i64, align 8
  store ptr %0, ptr %3, align 8, !tbaa !365
  store i64 %1, ptr %4, align 8, !tbaa !16
  %5 = load ptr, ptr %3, align 8
  %6 = getelementptr inbounds nuw %"class.std::__1::vector", ptr %5, i32 0, i32 0
  %7 = load ptr, ptr %6, align 8, !tbaa !367
  %8 = load i64, ptr %4, align 8, !tbaa !16
  %9 = getelementptr inbounds nuw ptr, ptr %7, i64 %8
  ret ptr %9
}

; Function Attrs: mustprogress nounwind uwtable
define linkonce_odr hidden noundef zeroext i1 @_ZNKSt3__16locale5__imp9has_facetEl(ptr noundef nonnull align 8 dereferenceable(312) %0, i64 noundef %1) #0 comdat align 2 {
  %3 = alloca ptr, align 8
  %4 = alloca i64, align 8
  store ptr %0, ptr %3, align 8, !tbaa !361
  store i64 %1, ptr %4, align 8, !tbaa !16
  %5 = load ptr, ptr %3, align 8
  %6 = load i64, ptr %4, align 8, !tbaa !16
  %7 = getelementptr inbounds nuw %"class.std::__1::locale::__imp", ptr %5, i32 0, i32 1
  %8 = call noundef i64 @_ZNKSt3__16vectorIPNS_6locale5facetENS_15__sso_allocatorIS3_Lm30EEEE4sizeB8ne210000Ev(ptr noundef nonnull align 8 dereferenceable(272) %7) #13
  %9 = icmp ult i64 %6, %8
  br i1 %9, label %10, label %16

10:                                               ; preds = %2
  %11 = getelementptr inbounds nuw %"class.std::__1::locale::__imp", ptr %5, i32 0, i32 1
  %12 = load i64, ptr %4, align 8, !tbaa !16
  %13 = call noundef nonnull align 8 dereferenceable(8) ptr @_ZNKSt3__16vectorIPNS_6locale5facetENS_15__sso_allocatorIS3_Lm30EEEEixB8ne210000Em(ptr noundef nonnull align 8 dereferenceable(272) %11, i64 noundef %12) #13
  %14 = load ptr, ptr %13, align 8, !tbaa !363
  %15 = icmp ne ptr %14, null
  br label %16

16:                                               ; preds = %10, %2
  %17 = phi i1 [ false, %2 ], [ %15, %10 ]
  ret i1 %17
}

; Function Attrs: mustprogress uwtable
define hidden noundef ptr @_ZNKSt3__16locale5__imp9use_facetEl(ptr noundef nonnull align 8 dereferenceable(312) %0, i64 noundef %1) #2 align 2 {
  %3 = alloca ptr, align 8
  %4 = alloca i64, align 8
  store ptr %0, ptr %3, align 8, !tbaa !361
  store i64 %1, ptr %4, align 8, !tbaa !16
  %5 = load ptr, ptr %3, align 8
  %6 = load i64, ptr %4, align 8, !tbaa !16
  %7 = call noundef zeroext i1 @_ZNKSt3__16locale5__imp9has_facetEl(ptr noundef nonnull align 8 dereferenceable(312) %5, i64 noundef %6)
  br i1 %7, label %9, label %8

8:                                                ; preds = %2
  call void @_ZNSt3__116__throw_bad_castB8ne210000Ev() #30
  unreachable

9:                                                ; preds = %2
  %10 = getelementptr inbounds nuw %"class.std::__1::locale::__imp", ptr %5, i32 0, i32 1
  %11 = load i64, ptr %4, align 8, !tbaa !16
  %12 = call noundef nonnull align 8 dereferenceable(8) ptr @_ZNKSt3__16vectorIPNS_6locale5facetENS_15__sso_allocatorIS3_Lm30EEEEixB8ne210000Em(ptr noundef nonnull align 8 dereferenceable(272) %10, i64 noundef %11) #13
  %13 = load ptr, ptr %12, align 8, !tbaa !363
  ret ptr %13
}