; Function Attrs: mustprogress uwtable
define hidden noundef ptr @_ZNKSt3__16locale5__imp9use_facetEl(ptr noundef nonnull readonly align 8 captures(none) dereferenceable(312) %0, i64 noundef %1) local_unnamed_addr #2 align 2 {
  %3 = getelementptr inbounds nuw i8, ptr %0, i64 16
  %4 = getelementptr inbounds nuw i8, ptr %0, i64 24
  %5 = load ptr, ptr %4, align 8, !tbaa !40
  %6 = load ptr, ptr %3, align 8, !tbaa !45
  %7 = ptrtoint ptr %5 to i64
  %8 = ptrtoint ptr %6 to i64
  %9 = sub i64 %7, %8
  %10 = ashr exact i64 %9, 3
  %11 = icmp ult i64 %1, %10
  br i1 %11, label %_ZNKSt3__16locale5__imp9has_facetEl.exit, label %_ZNKSt3__16locale5__imp9has_facetEl.exit.thread

_ZNKSt3__16locale5__imp9has_facetEl.exit:         ; preds = %2
  %12 = getelementptr inbounds nuw ptr, ptr %6, i64 %1
  %13 = load ptr, ptr %12, align 8, !tbaa !46
  %.not = icmp eq ptr %13, null
  br i1 %.not, label %_ZNKSt3__16locale5__imp9has_facetEl.exit.thread, label %14

_ZNKSt3__16locale5__imp9has_facetEl.exit.thread:  ; preds = %2, %_ZNKSt3__16locale5__imp9has_facetEl.exit
  tail call void @_ZNSt3__116__throw_bad_castB8ne210000Ev() #47
  unreachable

14:                                               ; preds = %_ZNKSt3__16locale5__imp9has_facetEl.exit
  ret ptr %13
}